target datalayout = "e-m:e-p270:32:32-p271:32:32-p272:64:64-i64:64-i128:128-f80:128-n8:16:32:64-S128"
target triple = "x86_64-pc-linux-gnu"

%"class.std::basic_string_view" = type { i64, ptr }

; Function Attrs: mustprogress nounwind uwtable
define linkonce_odr void @_ZNSt17basic_string_viewIcSt11char_traitsIcEEC2EPKcm(ptr noundef nonnull align 8 dereferenceable(16) %0, ptr noundef %1, i64 noundef %2) unnamed_addr #2 comdat align 2 {
  %4 = alloca ptr, align 8
  %5 = alloca ptr, align 8
  %6 = alloca i64, align 8
  store ptr %0, ptr %4, align 8
  store ptr %1, ptr %5, align 8
  store i64 %2, ptr %6, align 8
  %7 = load ptr, ptr %4, align 8
  %8 = getelementptr inbounds %"class.std::basic_string_view", ptr %7, i32 0, i32 0
  %9 = load i64, ptr %6, align 8
  store i64 %9, ptr %8, align 8
  %10 = getelementptr inbounds %"class.std::basic_string_view", ptr %7, i32 0, i32 1
  %11 = load ptr, ptr %5, align 8
  store ptr %11, ptr %10, align 8
  ret void
}

; Function Attrs: mustprogress uwtable
define void @_ZN3nix12writePaddingEmRNS_4SinkE(i64 noundef %0, ptr noundef nonnull align 8 dereferenceable(8) %1) #3 {
  %3 = alloca i64, align 8
  %4 = alloca ptr, align 8
  %5 = alloca [8 x i8], align 1
  %6 = alloca %"class.std::basic_string_view", align 8
  store i64 %0, ptr %3, align 8
  store ptr %1, ptr %4, align 8
  %7 = load i64, ptr %3, align 8
  %8 = urem i64 %7, 8
  %9 = icmp ne i64 %8, 0
  br i1 %9, label %10, label %24

10:                                               ; preds = %2
  %11 = getelementptr inbounds [8 x i8], ptr %5, i64 0, i64 0
  call void @llvm.memset.p0.i64(ptr align 1 %11, i8 0, i64 8, i1 false)
  %12 = load ptr, ptr %4, align 8
  %13 = getelementptr inbounds [8 x i8], ptr %5, i64 0, i64 0
  %14 = load i64, ptr %3, align 8
  %15 = urem i64 %14, 8
  %16 = sub i64 8, %15
  call void @_ZNSt17basic_string_viewIcSt11char_traitsIcEEC2EPKcm(ptr noundef nonnull align 8 dereferenceable(16) %6, ptr noundef %13, i64 noundef %16) #1
  %17 = getelementptr inbounds { i64, ptr }, ptr %6, i32 0, i32 0
  %18 = load i64, ptr %17, align 8
  %19 = getelementptr inbounds { i64, ptr }, ptr %6, i32 0, i32 1
  %20 = load ptr, ptr %19, align 8
  %21 = load ptr, ptr %12, align 8
  %22 = getelementptr inbounds ptr, ptr %21, i64 2
  %23 = load ptr, ptr %22, align 8
  call void %23(ptr noundef nonnull align 8 dereferenceable(8) %12, i64 %18, ptr %20)
  br label %24

24:                                               ; preds = %10, %2
  ret void
}

; Function Attrs: mustprogress uwtable
define linkonce_odr noundef nonnull align 8 dereferenceable(8) ptr @_ZN3nixlsERNS_4SinkEm(ptr noundef nonnull align 8 dereferenceable(8) %0, i64 noundef %1) #3 comdat {
  %3 = alloca ptr, align 8
  %4 = alloca i64, align 8
  %5 = alloca [8 x i8], align 1
  %6 = alloca %"class.std::basic_string_view", align 8
  store ptr %0, ptr %3, align 8
  store i64 %1, ptr %4, align 8
  %7 = load i64, ptr %4, align 8
  %8 = and i64 %7, 255
  %9 = trunc i64 %8 to i8
  %10 = getelementptr inbounds [8 x i8], ptr %5, i64 0, i64 0
  store i8 %9, ptr %10, align 1
  %11 = load i64, ptr %4, align 8
  %12 = lshr i64 %11, 8
  %13 = and i64 %12, 255
  %14 = trunc i64 %13 to i8
  %15 = getelementptr inbounds [8 x i8], ptr %5, i64 0, i64 1
  store i8 %14, ptr %15, align 1
  %16 = load i64, ptr %4, align 8
  %17 = lshr i64 %16, 16
  %18 = and i64 %17, 255
  %19 = trunc i64 %18 to i8
  %20 = getelementptr inbounds [8 x i8], ptr %5, i64 0, i64 2
  store i8 %19, ptr %20, align 1
  %21 = load i64, ptr %4, align 8
  %22 = lshr i64 %21, 24
  %23 = and i64 %22, 255
  %24 = trunc i64 %23 to i8
  %25 = getelementptr inbounds [8 x i8], ptr %5, i64 0, i64 3
  store i8 %24, ptr %25, align 1
  %26 = load i64, ptr %4, align 8
  %27 = lshr i64 %26, 32
  %28 = and i64 %27, 255
  %29 = trunc i64 %28 to i8
  %30 = getelementptr inbounds [8 x i8], ptr %5, i64 0, i64 4
  store i8 %29, ptr %30, align 1
  %31 = load i64, ptr %4, align 8
  %32 = lshr i64 %31, 40
  %33 = and i64 %32, 255
  %34 = trunc i64 %33 to i8
  %35 = getelementptr inbounds [8 x i8], ptr %5, i64 0, i64 5
  store i8 %34, ptr %35, align 1
  %36 = load i64, ptr %4, align 8
  %37 = lshr i64 %36, 48
  %38 = and i64 %37, 255
  %39 = trunc i64 %38 to i8
  %40 = getelementptr inbounds [8 x i8], ptr %5, i64 0, i64 6
  store i8 %39, ptr %40, align 1
  %41 = load i64, ptr %4, align 8
  %42 = lshr i64 %41, 56
  %43 = trunc i64 %42 to i8
  %44 = zext i8 %43 to i32
  %45 = and i32 %44, 255
  %46 = trunc i32 %45 to i8
  %47 = getelementptr inbounds [8 x i8], ptr %5, i64 0, i64 7
  store i8 %46, ptr %47, align 1
  %48 = load ptr, ptr %3, align 8
  %49 = getelementptr inbounds [8 x i8], ptr %5, i64 0, i64 0
  call void @_ZNSt17basic_string_viewIcSt11char_traitsIcEEC2EPKcm(ptr noundef nonnull align 8 dereferenceable(16) %6, ptr noundef %49, i64 noundef 8) #1
  %50 = getelementptr inbounds { i64, ptr }, ptr %6, i32 0, i32 0
  %51 = load i64, ptr %50, align 8
  %52 = getelementptr inbounds { i64, ptr }, ptr %6, i32 0, i32 1
  %53 = load ptr, ptr %52, align 8
  %54 = load ptr, ptr %48, align 8
  %55 = getelementptr inbounds ptr, ptr %54, i64 2
  %56 = load ptr, ptr %55, align 8
  call void %56(ptr noundef nonnull align 8 dereferenceable(8) %48, i64 %51, ptr %53)
  %57 = load ptr, ptr %3, align 8
  ret ptr %57
}

; Function Attrs: mustprogress nounwind uwtable
define linkonce_odr noundef i64 @_ZNKSt17basic_string_viewIcSt11char_traitsIcEE4sizeEv(ptr noundef nonnull align 8 dereferenceable(16) %0) #2 comdat align 2 {
  %2 = alloca ptr, align 8
  store ptr %0, ptr %2, align 8
  %3 = load ptr, ptr %2, align 8
  %4 = getelementptr inbounds %"class.std::basic_string_view", ptr %3, i32 0, i32 0
  %5 = load i64, ptr %4, align 8
  ret i64 %5
}

; Function Attrs: mustprogress uwtable
define void @_ZN3nix11writeStringESt17basic_string_viewIcSt11char_traitsIcEERNS_4SinkE(i64 %0, ptr %1, ptr noundef nonnull align 8 dereferenceable(8) %2) #3 {
  %4 = alloca %"class.std::basic_string_view", align 8
  %5 = alloca ptr, align 8
  %6 = alloca %"class.std::basic_string_view", align 8
  %7 = getelementptr inbounds { i64, ptr }, ptr %4, i32 0, i32 0
  store i64 %0, ptr %7, align 8
  %8 = getelementptr inbounds { i64, ptr }, ptr %4, i32 0, i32 1
  store ptr %1, ptr %8, align 8
  store ptr %2, ptr %5, align 8
  %9 = load ptr, ptr %5, align 8
  %10 = call noundef i64 @_ZNKSt17basic_string_viewIcSt11char_traitsIcEE4sizeEv(ptr noundef nonnull align 8 dereferenceable(16) %4) #1
  %11 = call noundef nonnull align 8 dereferenceable(8) ptr @_ZN3nixlsERNS_4SinkEm(ptr noundef nonnull align 8 dereferenceable(8) %9, i64 noundef %10)
  %12 = load ptr, ptr %5, align 8
  call void @llvm.memcpy.p0.p0.i64(ptr align 8 %6, ptr align 8 %4, i64 16, i1 false)
  %13 = getelementptr inbounds { i64, ptr }, ptr %6, i32 0, i32 0
  %14 = load i64, ptr %13, align 8
  %15 = getelementptr inbounds { i64, ptr }, ptr %6, i32 0, i32 1
  %16 = load ptr, ptr %15, align 8
  %17 = load ptr, ptr %12, align 8
  %18 = getelementptr inbounds ptr, ptr %17, i64 2
  %19 = load ptr, ptr %18, align 8
  call void %19(ptr noundef nonnull align 8 dereferenceable(8) %12, i64 %14, ptr %16)
  %20 = call noundef i64 @_ZNKSt17basic_string_viewIcSt11char_traitsIcEE4sizeEv(ptr noundef nonnull align 8 dereferenceable(16) %4) #1
  %21 = load ptr, ptr %5, align 8
  call void @_ZN3nix12writePaddingEmRNS_4SinkE(i64 noundef %20, ptr noundef nonnull align 8 dereferenceable(8) %21)
  ret void
}