; Function Attrs: mustprogress uwtable
define void @_ZN3nix11writeStringESt17basic_string_viewIcSt11char_traitsIcEERNS_4SinkE(i64 %0, ptr %1, ptr noundef nonnull align 8 dereferenceable(8) %2) local_unnamed_addr #2 {
  %4 = alloca [8 x i8], align 8
  %5 = alloca [8 x i8], align 1
  call void @llvm.lifetime.start.p0(i64 8, ptr nonnull %5)
  %6 = trunc i64 %0 to i8
  store i8 %6, ptr %5, align 1
  %7 = lshr i64 %0, 8
  %8 = trunc i64 %7 to i8
  %9 = getelementptr inbounds i8, ptr %5, i64 1
  store i8 %8, ptr %9, align 1
  %10 = lshr i64 %0, 16
  %11 = trunc i64 %10 to i8
  %12 = getelementptr inbounds i8, ptr %5, i64 2
  store i8 %11, ptr %12, align 1
  %13 = lshr i64 %0, 24
  %14 = trunc i64 %13 to i8
  %15 = getelementptr inbounds i8, ptr %5, i64 3
  store i8 %14, ptr %15, align 1
  %16 = lshr i64 %0, 32
  %17 = trunc i64 %16 to i8
  %18 = getelementptr inbounds i8, ptr %5, i64 4
  store i8 %17, ptr %18, align 1
  %19 = lshr i64 %0, 40
  %20 = trunc i64 %19 to i8
  %21 = getelementptr inbounds i8, ptr %5, i64 5
  store i8 %20, ptr %21, align 1
  %22 = lshr i64 %0, 48
  %23 = trunc i64 %22 to i8
  %24 = getelementptr inbounds i8, ptr %5, i64 6
  store i8 %23, ptr %24, align 1
  %25 = lshr i64 %0, 56
  %26 = trunc i64 %25 to i8
  %27 = getelementptr inbounds i8, ptr %5, i64 7
  store i8 %26, ptr %27, align 1
  %28 = load ptr, ptr %2, align 8
  %29 = getelementptr inbounds i8, ptr %28, i64 16
  %30 = load ptr, ptr %29, align 8
  call void %30(ptr noundef nonnull align 8 dereferenceable(8) %2, i64 8, ptr nonnull %5)
  call void @llvm.lifetime.end.p0(i64 8, ptr nonnull %5)
  %31 = load ptr, ptr %2, align 8
  %32 = getelementptr inbounds i8, ptr %31, i64 16
  %33 = load ptr, ptr %32, align 8
  call void %33(ptr noundef nonnull align 8 dereferenceable(8) %2, i64 %0, ptr %1)
  call void @llvm.lifetime.start.p0(i64 8, ptr nonnull %4)
  %34 = and i64 %0, 7
  %.not.i = icmp eq i64 %34, 0
  br i1 %.not.i, label %_ZN3nix12writePaddingEmRNS_4SinkE.exit, label %35

35:                                               ; preds = %3
  store i64 0, ptr %4, align 8
  %36 = sub nuw nsw i64 8, %34
  %37 = load ptr, ptr %2, align 8
  %38 = getelementptr inbounds i8, ptr %37, i64 16
  %39 = load ptr, ptr %38, align 8
  call void %39(ptr noundef nonnull align 8 dereferenceable(8) %2, i64 %36, ptr nonnull %4)
  br label %_ZN3nix12writePaddingEmRNS_4SinkE.exit

_ZN3nix12writePaddingEmRNS_4SinkE.exit:           ; preds = %3, %35
  call void @llvm.lifetime.end.p0(i64 8, ptr nonnull %4)
  ret void
}